; Function Attrs: nounwind uwtable
define dso_local void @PySys_AddXOption(ptr noundef %0) local_unnamed_addr #0 {
  %2 = tail call align 8 ptr @llvm.threadlocal.address.p0(ptr align 8 @_Py_tss_tstate)
  %3 = load ptr, ptr %2, align 8, !tbaa !92
  %4 = icmp eq ptr %3, null
  br i1 %4, label %5, label %6

5:                                                ; preds = %1
  tail call fastcc void @_append_preinit_entry(ptr noundef nonnull @_preinit_xoptions, ptr noundef %0)
  br label %_PySys_AddXOptionWithError.exit.thread6

6:                                                ; preds = %1
  %7 = tail call fastcc ptr @get_xoptions(ptr noundef nonnull %3)
  %8 = icmp eq ptr %7, null
  br i1 %8, label %_PySys_AddXOptionWithError.exit.thread, label %9

9:                                                ; preds = %6
  %10 = tail call ptr @wcschr(ptr noundef %0, i32 noundef 61) #17
  %.not.i = icmp eq ptr %10, null
  br i1 %.not.i, label %11, label %19

11:                                               ; preds = %9
  %12 = tail call ptr @PyUnicode_FromWideChar(ptr noundef %0, i64 noundef -1) #15
  %13 = icmp eq ptr %12, null
  br i1 %13, label %_PySys_AddXOptionWithError.exit.thread, label %14

14:                                               ; preds = %11
  %15 = load i32, ptr @_Py_TrueStruct, align 8, !tbaa !94
  %16 = icmp slt i32 %15, 0
  br i1 %16, label %_Py_NewRef.exit.i, label %17

17:                                               ; preds = %14
  %18 = add nuw i32 %15, 1
  store i32 %18, ptr @_Py_TrueStruct, align 8, !tbaa !94
  br label %_Py_NewRef.exit.i

19:                                               ; preds = %9
  %20 = ptrtoint ptr %10 to i64
  %21 = ptrtoint ptr %0 to i64
  %22 = sub i64 %20, %21
  %23 = ashr exact i64 %22, 2
  %24 = tail call ptr @PyUnicode_FromWideChar(ptr noundef %0, i64 noundef %23) #15
  %25 = icmp eq ptr %24, null
  br i1 %25, label %_PySys_AddXOptionWithError.exit.thread, label %26

26:                                               ; preds = %19
  %27 = getelementptr i8, ptr %10, i64 4
  %28 = tail call ptr @PyUnicode_FromWideChar(ptr noundef %27, i64 noundef -1) #15
  %29 = icmp eq ptr %28, null
  br i1 %29, label %42, label %_Py_NewRef.exit.i

_Py_NewRef.exit.i:                                ; preds = %26, %17, %14
  %.121.i = phi ptr [ %28, %26 ], [ @_Py_TrueStruct, %14 ], [ @_Py_TrueStruct, %17 ]
  %.1.i = phi ptr [ %24, %26 ], [ %12, %14 ], [ %12, %17 ]
  %30 = tail call i32 @PyDict_SetItem(ptr noundef nonnull %7, ptr noundef nonnull %.1.i, ptr noundef nonnull %.121.i) #15
  %31 = icmp slt i32 %30, 0
  br i1 %31, label %42, label %32

32:                                               ; preds = %_Py_NewRef.exit.i
  %33 = load i32, ptr %.1.i, align 8, !tbaa !94
  %.not.i30.i = icmp sgt i32 %33, -1
  br i1 %.not.i30.i, label %34, label %Py_DECREF.exit31.i

34:                                               ; preds = %32
  %35 = add nsw i32 %33, -1
  store i32 %35, ptr %.1.i, align 8, !tbaa !94
  %36 = icmp eq i32 %35, 0
  br i1 %36, label %37, label %Py_DECREF.exit31.i

37:                                               ; preds = %34
  tail call void @_Py_Dealloc(ptr noundef nonnull %.1.i) #15
  br label %Py_DECREF.exit31.i

Py_DECREF.exit31.i:                               ; preds = %37, %34, %32
  %38 = load i32, ptr %.121.i, align 8, !tbaa !94
  %.not.i.i = icmp sgt i32 %38, -1
  br i1 %.not.i.i, label %39, label %_PySys_AddXOptionWithError.exit.thread6

39:                                               ; preds = %Py_DECREF.exit31.i
  %40 = add nsw i32 %38, -1
  store i32 %40, ptr %.121.i, align 8, !tbaa !94
  %41 = icmp eq i32 %40, 0
  br i1 %41, label %_PySys_AddXOptionWithError.exit, label %_PySys_AddXOptionWithError.exit.thread6

42:                                               ; preds = %_Py_NewRef.exit.i, %26
  %.020.i = phi ptr [ null, %26 ], [ %.121.i, %_Py_NewRef.exit.i ]
  %.019.i = phi ptr [ %24, %26 ], [ %.1.i, %_Py_NewRef.exit.i ]
  %43 = load i32, ptr %.019.i, align 8, !tbaa !94
  %.not.i.i.i = icmp sgt i32 %43, -1
  br i1 %.not.i.i.i, label %44, label %Py_XDECREF.exit.i

44:                                               ; preds = %42
  %45 = add nsw i32 %43, -1
  store i32 %45, ptr %.019.i, align 8, !tbaa !94
  %46 = icmp eq i32 %45, 0
  br i1 %46, label %47, label %Py_XDECREF.exit.i

47:                                               ; preds = %44
  tail call void @_Py_Dealloc(ptr noundef nonnull %.019.i) #15
  br label %Py_XDECREF.exit.i

Py_XDECREF.exit.i:                                ; preds = %47, %44, %42
  %.not.i34.i = icmp eq ptr %.020.i, null
  br i1 %.not.i34.i, label %_PySys_AddXOptionWithError.exit.thread, label %48

48:                                               ; preds = %Py_XDECREF.exit.i
  %49 = load i32, ptr %.020.i, align 8, !tbaa !94
  %.not.i.i35.i = icmp sgt i32 %49, -1
  br i1 %.not.i.i35.i, label %50, label %_PySys_AddXOptionWithError.exit.thread

50:                                               ; preds = %48
  %51 = add nsw i32 %49, -1
  store i32 %51, ptr %.020.i, align 8, !tbaa !94
  %52 = icmp eq i32 %51, 0
  br i1 %52, label %_PySys_AddXOptionWithError.exit.thread8, label %_PySys_AddXOptionWithError.exit.thread

_PySys_AddXOptionWithError.exit.thread8:          ; preds = %50
  tail call void @_Py_Dealloc(ptr noundef nonnull %.020.i) #15
  br label %_PySys_AddXOptionWithError.exit.thread

_PySys_AddXOptionWithError.exit:                  ; preds = %39
  tail call void @_Py_Dealloc(ptr noundef nonnull %.121.i) #15
  br label %_PySys_AddXOptionWithError.exit.thread6

_PySys_AddXOptionWithError.exit.thread:           ; preds = %6, %19, %11, %50, %48, %Py_XDECREF.exit.i, %_PySys_AddXOptionWithError.exit.thread8
  tail call void @_PyErr_Clear(ptr noundef nonnull %3) #15
  br label %_PySys_AddXOptionWithError.exit.thread6

_PySys_AddXOptionWithError.exit.thread6:          ; preds = %39, %Py_DECREF.exit31.i, %_PySys_AddXOptionWithError.exit, %_PySys_AddXOptionWithError.exit.thread, %5
  ret void
}